target datalayout = "e-m:e-p270:32:32-p271:32:32-p272:64:64-i64:64-i128:128-f80:128-n8:16:32:64-S128"
target triple = "x86_64-pc-linux-gnu"

; Function Attrs: alwaysinline nounwind willreturn memory(none) uwtable
define internal zeroext i16 @av_bswap16(i16 noundef zeroext %0) #6 {
  %2 = alloca i16, align 2
  store i16 %0, ptr %2, align 2, !tbaa !49
  %3 = load i16, ptr %2, align 2, !tbaa !49
  %4 = zext i16 %3 to i32
  %5 = ashr i32 %4, 8
  %6 = load i16, ptr %2, align 2, !tbaa !49
  %7 = zext i16 %6 to i32
  %8 = shl i32 %7, 8
  %9 = or i32 %5, %8
  %10 = trunc i32 %9 to i16
  store i16 %10, ptr %2, align 2, !tbaa !49
  %11 = load i16, ptr %2, align 2, !tbaa !49
  ret i16 %11
}

; Function Attrs: alwaysinline nounwind willreturn memory(none) uwtable
define internal i32 @av_clip_uintp2_c(i32 noundef %0, i32 noundef %1) #6 {
  %3 = alloca i32, align 4
  %4 = alloca i32, align 4
  %5 = alloca i32, align 4
  store i32 %0, ptr %4, align 4, !tbaa !30
  store i32 %1, ptr %5, align 4, !tbaa !30
  %6 = load i32, ptr %4, align 4, !tbaa !30
  %7 = load i32, ptr %5, align 4, !tbaa !30
  %8 = shl i32 1, %7
  %9 = sub i32 %8, 1
  %10 = xor i32 %9, -1
  %11 = and i32 %6, %10
  %12 = icmp ne i32 %11, 0
  br i1 %12, label %13, label %21

13:                                               ; preds = %2
  %14 = load i32, ptr %4, align 4, !tbaa !30
  %15 = xor i32 %14, -1
  %16 = ashr i32 %15, 31
  %17 = load i32, ptr %5, align 4, !tbaa !30
  %18 = shl i32 1, %17
  %19 = sub i32 %18, 1
  %20 = and i32 %16, %19
  store i32 %20, ptr %3, align 4
  br label %23

21:                                               ; preds = %2
  %22 = load i32, ptr %4, align 4, !tbaa !30
  store i32 %22, ptr %3, align 4
  br label %23

23:                                               ; preds = %21, %13
  %24 = load i32, ptr %3, align 4
  ret i32 %24
}

; Function Attrs: nounwind uwtable
define internal void @yuv2p01xl1_c(ptr noundef %0, ptr noundef %1, i32 noundef %2, i32 noundef %3, i32 noundef %4, i32 noundef %5) #4 {
  %7 = alloca ptr, align 8
  %8 = alloca ptr, align 8
  %9 = alloca i32, align 4
  %10 = alloca i32, align 4
  %11 = alloca i32, align 4
  %12 = alloca i32, align 4
  %13 = alloca i32, align 4
  %14 = alloca i32, align 4
  %15 = alloca i32, align 4
  store ptr %0, ptr %7, align 8, !tbaa !45
  store ptr %1, ptr %8, align 8, !tbaa !45
  store i32 %2, ptr %9, align 4, !tbaa !30
  store i32 %3, ptr %10, align 4, !tbaa !30
  store i32 %4, ptr %11, align 4, !tbaa !30
  store i32 %5, ptr %12, align 4, !tbaa !30
  call void @llvm.lifetime.start.p0(i64 4, ptr %13) #8
  call void @llvm.lifetime.start.p0(i64 4, ptr %14) #8
  %16 = load i32, ptr %11, align 4, !tbaa !30
  %17 = sub nsw i32 15, %16
  store i32 %17, ptr %14, align 4, !tbaa !30
  store i32 0, ptr %13, align 4, !tbaa !30
  br label %18

18:                                               ; preds = %63, %6
  %19 = load i32, ptr %13, align 4, !tbaa !30
  %20 = load i32, ptr %9, align 4, !tbaa !30
  %21 = icmp slt i32 %19, %20
  br i1 %21, label %22, label %66

22:                                               ; preds = %18
  call void @llvm.lifetime.start.p0(i64 4, ptr %15) #8
  %23 = load ptr, ptr %7, align 8, !tbaa !45
  %24 = load i32, ptr %13, align 4, !tbaa !30
  %25 = sext i32 %24 to i64
  %26 = getelementptr inbounds i16, ptr %23, i64 %25
  %27 = load i16, ptr %26, align 2, !tbaa !49
  %28 = sext i16 %27 to i32
  %29 = load i32, ptr %14, align 4, !tbaa !30
  %30 = sub nsw i32 %29, 1
  %31 = shl i32 1, %30
  %32 = add nsw i32 %28, %31
  store i32 %32, ptr %15, align 4, !tbaa !30
  %33 = load i32, ptr %10, align 4, !tbaa !30
  %34 = icmp ne i32 %33, 0
  br i1 %34, label %35, label %49

35:                                               ; preds = %22
  %36 = load i32, ptr %15, align 4, !tbaa !30
  %37 = load i32, ptr %14, align 4, !tbaa !30
  %38 = ashr i32 %36, %37
  %39 = load i32, ptr %11, align 4, !tbaa !30
  %40 = call i32 @av_clip_uintp2_c(i32 noundef %38, i32 noundef %39) #10
  %41 = load i32, ptr %12, align 4, !tbaa !30
  %42 = shl i32 %40, %41
  %43 = trunc i32 %42 to i16
  %44 = call zeroext i16 @av_bswap16(i16 noundef zeroext %43) #10
  %45 = load ptr, ptr %8, align 8, !tbaa !45
  %46 = load i32, ptr %13, align 4, !tbaa !30
  %47 = sext i32 %46 to i64
  %48 = getelementptr inbounds i16, ptr %45, i64 %47
  store i16 %44, ptr %48, align 1, !tbaa !51
  br label %62

49:                                               ; preds = %22
  %50 = load i32, ptr %15, align 4, !tbaa !30
  %51 = load i32, ptr %14, align 4, !tbaa !30
  %52 = ashr i32 %50, %51
  %53 = load i32, ptr %11, align 4, !tbaa !30
  %54 = call i32 @av_clip_uintp2_c(i32 noundef %52, i32 noundef %53) #10
  %55 = load i32, ptr %12, align 4, !tbaa !30
  %56 = shl i32 %54, %55
  %57 = trunc i32 %56 to i16
  %58 = load ptr, ptr %8, align 8, !tbaa !45
  %59 = load i32, ptr %13, align 4, !tbaa !30
  %60 = sext i32 %59 to i64
  %61 = getelementptr inbounds i16, ptr %58, i64 %60
  store i16 %57, ptr %61, align 1, !tbaa !51
  br label %62

62:                                               ; preds = %49, %35
  call void @llvm.lifetime.end.p0(i64 4, ptr %15) #8
  br label %63

63:                                               ; preds = %62
  %64 = load i32, ptr %13, align 4, !tbaa !30
  %65 = add nsw i32 %64, 1
  store i32 %65, ptr %13, align 4, !tbaa !30
  br label %18, !llvm.loop !106

66:                                               ; preds = %18
  call void @llvm.lifetime.end.p0(i64 4, ptr %14) #8
  call void @llvm.lifetime.end.p0(i64 4, ptr %13) #8
  ret void
}

; Function Attrs: nounwind uwtable
define internal void @yuv2p010l1_BE_c(ptr noundef %0, ptr noundef %1, i32 noundef %2, ptr noundef %3, i32 noundef %4) #4 {
  %6 = alloca ptr, align 8
  %7 = alloca ptr, align 8
  %8 = alloca i32, align 4
  %9 = alloca ptr, align 8
  %10 = alloca i32, align 4
  store ptr %0, ptr %6, align 8, !tbaa !45
  store ptr %1, ptr %7, align 8, !tbaa !46
  store i32 %2, ptr %8, align 4, !tbaa !30
  store ptr %3, ptr %9, align 8, !tbaa !46
  store i32 %4, ptr %10, align 4, !tbaa !30
  %11 = load ptr, ptr %6, align 8, !tbaa !45
  %12 = load ptr, ptr %7, align 8, !tbaa !46
  %13 = load i32, ptr %8, align 4, !tbaa !30
  call void @yuv2p01xl1_c(ptr noundef %11, ptr noundef %12, i32 noundef %13, i32 noundef 1, i32 noundef 10, i32 noundef 6)
  ret void
}